(iMudCharacter
MudCharacter
p1
(dp2
S'info'
p3
(dp4
S'admin_level'
p5
I1
sS'commands'
p6
(dp7
S'delportal'
p8
(icmdDelPortal
cmdDelPortal
p9
(dp10
g3
(dp11
S'useExample'
p12
S'delportal 3'
p13
sS'helpText'
p14
S'Deletes a portal from the room, based on supplied ID.'
p15
sS'cmdName'
p16
g8
ssbsS'spawn'
p17
(icmdSpawn
cmdSpawn
p18
(dp19
g3
(dp20
g12
S'spawn character/item 5'
p21
sg14
S'Spawn allows you to create an instance from a character or item template.         The instance is created in the room you are in.'
p22
sg16
g17
ssbsS'zedit'
p23
(icmdZedit
cmdZedit
p24
(dp25
g3
(dp26
g12
S'zedit (addlogic, dellogic)'
p27
sg14
S'Lets you edit the zone attributes.'
p28
sg16
g23
ssbsS'revoke'
p29
(icmdRevoke
cmdRevoke
p30
(dp31
g3
(dp32
g12
S'revoke playername commandname'
p33
sg14
S'Revokes a command from a player.'
p34
sg16
g29
ssbsS'color'
p35
(icmdColor
cmdColor
p36
(dp37
g3
(dp38
g12
S'color on/off'
p39
sg14
S'Lets you toggle color on or off.'
p40
sg16
S'color'
p41
ssbsS'delzone'
p42
(icmdDelZone
cmdDelZone
p43
(dp44
g3
(dp45
g12
S'delzone 3'
p46
sg14
S'Deletes the zone with the supplied ID number.'
p47
sg16
g42
ssbsS'newportal'
p48
(icmdNewPortal
cmdNewPortal
p49
(dp50
g3
(dp51
g12
S'newportal 3 Door of Death'
p52
sg14
S'Creates a new room with the specified target room and name.'
p53
sg16
g48
ssbsS'say'
p54
(icmdSay
cmdSay
p55
(dp56
g3
(dp57
g12
S'say text'
p58
sg14
S'Lets you say something to the room.'
p59
sg16
S'say'
p60
ssbsS'go'
p61
(icmdGo
cmdGo
p62
(dp63
g3
(dp64
g12
S''
sg14
S''
sg16
S''
ssg12
S'go portalname'
p65
sg14
S'This tries to move you through a portal.'
p66
sg16
S'go'
p67
sbsS'delroom'
p68
(icmdDelRoom
cmdDelRoom
p69
(dp70
g3
(dp71
g12
S'newroom 3'
p72
sg14
S'Creates a new room with the specified ID.'
p73
sg16
g68
ssbsS'vari'
p74
(icmdVari
cmdVari
p75
(dp76
g3
(dp77
g12
S'DO NOT USE!'
p78
sg14
g78
sg16
g74
ssbsS'quit'
p79
(icmdQuit
cmdQuit
p80
(dp81
g3
(dp82
g12
S'quit'
p83
sg14
S'Lets you quit the game.'
p84
sg16
g83
ssbsS'addstat'
p85
(icmdAddStat
cmdAddStat
p86
(dp87
g3
(dp88
g12
S'addstat ctemplate/cinstance/itemplate/iinstance ID statname initialvalue'
p89
sg14
S'Lets you add stats to the template or instance.'
p90
sg16
g85
ssbsS'grant'
p91
(icmdGrant
cmdGrant
p92
(dp93
g3
(dp94
g12
S'grant playername all/olc/standard or grant playername commandname'
p95
sg14
S'Grants a player a command or group of commands.'
p96
sg16
g91
ssbsS'redit'
p97
(icmdRedit
cmdRedit
p98
(dp99
g3
(dp100
g12
S'redit (name, desc, addlogic, dellogic)'
p101
sg14
S'Lets you edit the room attributes.'
p102
sg16
g97
ssbsS'savezone'
p103
(icmdSaveZone
cmdSaveZone
p104
(dp105
g3
(dp106
g12
S'savezone 3'
p107
sg14
S'Saves the zone with the supplied ID number.'
p108
sg16
g103
ssbsS'pedit'
p109
(icmdPedit
cmdPedit
p110
(dp111
g3
(dp112
g12
S'pedit id (name, targetzone, targetroom)'
p113
sg14
S'Lets you edit portal attributes'
p114
sg16
g109
ssbsS'delstat'
p115
(icmdDelStat
cmdDelStat
p116
(dp117
g3
(dp118
g12
S'delstat ctemplate/cinstance/itemplate/iinstance ID statname'
p119
sg14
S'Lets you delete stats from the template or instance.'
p120
sg16
g115
ssbsS'get'
p121
(icmdGet
cmdGet
p122
(dp123
g3
(dp124
g12
S''
sg14
S''
sg16
S''
ssg12
S'get sword'
p125
sg14
S'This tries to get an item.'
p126
sg16
S'get'
p127
sbsg6
(icmdCommands
cmdCommands
p128
(dp129
g3
(dp130
g12
S'commands'
p131
sg14
S'This command shows the player a list of commands at their disposal.'
p132
sg16
g131
ssbsS'warp'
p133
(icmdWarp
cmdWarp
p134
(dp135
g3
(dp136
g12
S'warp (zone ID) room ID or warp playername'
p137
sg14
S'Lets you instantly travel to a room, zone, or player.'
p138
sg16
g133
ssbsS'listzone'
p139
(icmdListZone
cmdListZone
p140
(dp141
g3
(dp142
g12
S'listzone (zoneid)'
p143
sg14
S'Lists all zone names and IDs, or more specific info about a specified zone.'
p144
sg16
g139
ssbsS'newtemplate'
p145
(icmdNewTemplate
cmdNewTemplate
p146
(dp147
g3
(dp148
g12
S'newtemplate character/item Name of Template'
p149
sg14
S'Creates a new template with the optionally specified name.'
p150
sg16
g145
ssbsg3
(icmdInfo
cmdInfo
p151
(dp152
g3
(dp153
g12
S'info ctemplate/cinstance/itemplate/iinstance ID'
p154
sg14
S'Displays detailed informatin about a template, instance, room or portal.'
p155
sg16
g3
ssbsS'search'
p156
(icmdSearch
cmdSearch
p157
(dp158
g3
(dp159
g12
S'search item sword'
p160
sg14
S'This command allows you to search through the character and item databases for an instance or a template.'
p161
sg16
g156
ssbsS'look'
p162
(icmdLook
cmdLook
p163
(dp164
g3
(dp165
g12
S'look (target)'
p166
sg14
S'Look at your surroundings, or something specific.'
p167
sg16
S'look'
p168
ssbsS'newzone'
p169
(icmdNewZone
cmdNewZone
p170
(dp171
g3
(dp172
g12
S'newzone The Deadly Forest of Death'
p173
sg14
S'Creates a new zone with the supplied name'
p174
sg16
g169
ssbsS'edit'
p175
(icmdEdit
cmdEdit
p176
(dp177
g3
(dp178
g12
S'edit cinstance/ctemplate/iinstance/itemplate         ID field value'
p179
sg14
S'Lets you edit template and instance attributes.'
p180
sg16
g175
ssbsS'drop'
p181
(icmdDrop
cmdDrop
p182
(dp183
g3
(dp184
g12
S''
sg14
S''
sg16
S''
ssg12
S'get sword'
p185
sg14
S'This tries to get an item.'
p186
sg16
g127
sbsS'newroom'
p187
(icmdNewRoom
cmdNewRoom
p188
(dp189
g3
(dp190
g12
S'newroom (The Room of Horrible Horror)'
p191
sg14
S'Creates a new room with the optionally specified name.'
p192
sg16
g187
ssbsS'obliterate'
p193
(icmdObliterate
cmdObliterate
p194
(dp195
g3
(dp196
g12
S'obliterate iinstance/itemplate/cinstance/ctemplate ID'
p197
sg14
S'Destroys a template or ID.'
p198
sg16
g193
ssbsS'copyover'
p199
(icmdCopyover
cmdCopyover
p200
(dp201
g3
(dp202
g12
g199
sg14
S'A command to check and reload any code changes dynamically, rather than having                                     to reboot the entire MUD.'
p203
sg16
S'Copyover'
p204
ssbssS'logics'
p205
(dp206
S'genericPlayer'
p207
(igenericPlayer
genericPlayer
p208
(dp209
S'temporary'
p210
I00
sbssS'name'
p211
S'Admin'
p212
sg35
I00
sS'hooks'
p213
(lp214
sS'zoneRef'
p215
I2
sS'id_num'
p216
I0
sS'rank'
p217
I1
sS'login_state'
p218
I7
sS'statistics'
p219
(dp220
sS'templateId'
p221
NsS'password'
p222
S'admin'
p223
sS'items'
p224
(dp225
sS'roomRef'
p226
I1
sS'desc'
p227
S'A blank description.'
p228
ssS'sockRef'
p229
Nsb.