(iMudCharacter
MudCharacter
p1
(dp2
S'info'
p3
(dp4
S'admin_level'
p5
I1
sS'commands'
p6
(dp7
S'quit'
p8
(icmdQuit
cmdQuit
p9
(dp10
g3
(dp11
S'useExample'
p12
g8
sS'helpText'
p13
S'Lets you quit the game.'
p14
sS'cmdName'
p15
g8
ssbsg6
(icmdCommands
cmdCommands
p16
(dp17
g3
(dp18
g12
g6
sg13
S'This command shows the player a list of commands at their disposal.'
p19
sg15
g6
ssbsS'look'
p20
(icmdLook
cmdLook
p21
(dp22
g3
(dp23
g12
S'look (target)'
p24
sg13
S'Look at your surroundings, or something specific.'
p25
sg15
g20
ssbsS'get'
p26
(icmdGet
cmdGet
p27
(dp28
g3
(dp29
g12
S''
sg13
S''
sg15
S''
ssg12
S'get sword'
p30
sg13
S'This tries to get an item.'
p31
sg15
g26
sbsS'color'
p32
(icmdColor
cmdColor
p33
(dp34
g3
(dp35
g12
S'color on/off'
p36
sg13
S'Lets you toggle color on or off.'
p37
sg15
g32
ssbsS'drop'
p38
(icmdDrop
cmdDrop
p39
(dp40
g3
(dp41
g12
S''
sg13
S''
sg15
S''
ssg12
S'get sword'
p42
sg13
S'This tries to get an item.'
p43
sg15
g26
sbsS'say'
p44
(icmdSay
cmdSay
p45
(dp46
g3
(dp47
g12
S'say text'
p48
sg13
S'Lets you say something to the room.'
p49
sg15
g44
ssbsS'go'
p50
(icmdGo
cmdGo
p51
(dp52
g3
(dp53
g12
S''
sg13
S''
sg15
S''
ssg12
S'go portalname'
p54
sg13
S'This tries to move you through a portal.'
p55
sg15
g50
sbssS'logics'
p56
(dp57
S'genericPlayer'
p58
(igenericPlayer
genericPlayer
p59
(dp60
S'temporary'
p61
I00
sbssS'name'
p62
S'Admin'
p63
sg32
I00
sS'hooks'
p64
(lp65
sS'zoneRef'
p66
I1
sS'id_num'
p67
I0
sS'rank'
p68
I1
sS'login_state'
p69
I7
sS'statistics'
p70
(dp71
sS'templateId'
p72
NsS'password'
p73
S'admin'
p74
sS'items'
p75
(dp76
sS'roomRef'
p77
I1
sS'desc'
p78
S'A blank description.'
p79
ssS'sockRef'
p80
Nsb.