(iMudCharacter
MudCharacter
p1
(dp2
S'info'
p3
(dp4
S'admin_level'
p5
I1
sS'commands'
p6
(dp7
S'delportal'
p8
(icmdDelPortal
cmdDelPortal
p9
(dp10
g3
(dp11
S'useExample'
p12
S'delportal 3'
p13
sS'helpText'
p14
S'Deletes a portal from the room, based on supplied ID.'
p15
sS'cmdName'
p16
g8
ssbsS'spawn'
p17
(icmdSpawn
cmdSpawn
p18
(dp19
g3
(dp20
g12
S'spawn character/item 5'
p21
sg14
S'Spawn allows you to create an instance from a character or item template.         The instance is created in the room you are in.'
p22
sg16
g17
ssbsS'zedit'
p23
(icmdZedit
cmdZedit
p24
(dp25
g3
(dp26
g12
S'zedit (addlogic, dellogic)'
p27
sg14
S'Lets you edit the zone attributes.'
p28
sg16
g23
ssbsS'color'
p29
(icmdColor
cmdColor
p30
(dp31
g3
(dp32
g12
S'color on/off'
p33
sg14
S'Lets you toggle color on or off.'
p34
sg16
g29
ssbsS'delzone'
p35
(icmdDelZone
cmdDelZone
p36
(dp37
g3
(dp38
g12
S'delzone 3'
p39
sg14
S'Deletes the zone with the supplied ID number.'
p40
sg16
g35
ssbsS'newportal'
p41
(icmdNewPortal
cmdNewPortal
p42
(dp43
g3
(dp44
g12
S'newportal 3 Door of Death'
p45
sg14
S'Creates a new room with the specified target room and name.'
p46
sg16
g41
ssbsS'say'
p47
(icmdSay
cmdSay
p48
(dp49
g3
(dp50
g12
S'say text'
p51
sg14
S'Lets you say something to the room.'
p52
sg16
g47
ssbsS'go'
p53
(icmdGo
cmdGo
p54
(dp55
g3
(dp56
g12
S''
sg14
S''
sg16
S''
ssg12
S'go portalname'
p57
sg14
S'This tries to move you through a portal.'
p58
sg16
g53
sbsS'delroom'
p59
(icmdDelRoom
cmdDelRoom
p60
(dp61
g3
(dp62
g12
S'newroom 3'
p63
sg14
S'Creates a new room with the specified ID.'
p64
sg16
g59
ssbsS'vari'
p65
(icmdVari
cmdVari
p66
(dp67
g3
(dp68
g12
S'DO NOT USE!'
p69
sg14
g69
sg16
g65
ssbsS'quit'
p70
(icmdQuit
cmdQuit
p71
(dp72
g3
(dp73
g12
g70
sg14
S'Lets you quit the game.'
p74
sg16
g70
ssbsS'addstat'
p75
(icmdAddStat
cmdAddStat
p76
(dp77
g3
(dp78
g12
S'addstat ctemplate/cinstance/itemplate/iinstance ID statname initialvalue'
p79
sg14
S'Lets you add stats to the template or instance.'
p80
sg16
g75
ssbsS'redit'
p81
(icmdRedit
cmdRedit
p82
(dp83
g3
(dp84
g12
S'redit (name, desc, addlogic, dellogic)'
p85
sg14
S'Lets you edit the room attributes.'
p86
sg16
g81
ssbsS'pedit'
p87
(icmdPedit
cmdPedit
p88
(dp89
g3
(dp90
g12
S'pedit id (name, targetzone, targetroom)'
p91
sg14
S'Lets you edit portal attributes'
p92
sg16
g87
ssbsS'delstat'
p93
(icmdDelStat
cmdDelStat
p94
(dp95
g3
(dp96
g12
S'delstat ctemplate/cinstance/itemplate/iinstance ID statname'
p97
sg14
S'Lets you delete stats from the template or instance.'
p98
sg16
g93
ssbsS'get'
p99
(icmdGet
cmdGet
p100
(dp101
g3
(dp102
g12
S''
sg14
S''
sg16
S''
ssg12
S'get sword'
p103
sg14
S'This tries to get an item.'
p104
sg16
g99
sbsS'search'
p105
(icmdSearch
cmdSearch
p106
(dp107
g3
(dp108
g12
S'search item sword'
p109
sg14
S'This command allows you to search through the character and item databases for an instance or a template.'
p110
sg16
g105
ssbsS'warp'
p111
(icmdWarp
cmdWarp
p112
(dp113
g3
(dp114
g12
S'warp (zone ID) room ID or warp playername'
p115
sg14
S'Lets you instantly travel to a room, zone, or player.'
p116
sg16
g111
ssbsS'listzone'
p117
(icmdListZone
cmdListZone
p118
(dp119
g3
(dp120
g12
S'listzone (zoneid)'
p121
sg14
S'Lists all zone names and IDs, or more specific info about a specified zone.'
p122
sg16
g117
ssbsS'newtemplate'
p123
(icmdNewTemplate
cmdNewTemplate
p124
(dp125
g3
(dp126
g12
S'newtemplate character/item Name of Template'
p127
sg14
S'Creates a new template with the optionally specified name.'
p128
sg16
g123
ssbsg6
(icmdCommands
cmdCommands
p129
(dp130
g3
(dp131
g12
g6
sg14
S'This command shows the player a list of commands at their disposal.'
p132
sg16
g6
ssbsS'look'
p133
(icmdLook
cmdLook
p134
(dp135
g3
(dp136
g12
S'look (target)'
p137
sg14
S'Look at your surroundings, or something specific.'
p138
sg16
g133
ssbsS'newzone'
p139
(icmdNewZone
cmdNewZone
p140
(dp141
g3
(dp142
g12
S'newzone The Deadly Forest of Death'
p143
sg14
S'Creates a new zone with the supplied name'
p144
sg16
g139
ssbsS'edit'
p145
(icmdEdit
cmdEdit
p146
(dp147
g3
(dp148
g12
S'edit cinstance/ctemplate/iinstance/itemplate         ID field value'
p149
sg14
S'Lets you edit template and instance attributes.'
p150
sg16
g145
ssbsS'drop'
p151
(icmdDrop
cmdDrop
p152
(dp153
g3
(dp154
g12
S''
sg14
S''
sg16
S''
ssg12
S'get sword'
p155
sg14
S'This tries to get an item.'
p156
sg16
g99
sbsS'newroom'
p157
(icmdNewRoom
cmdNewRoom
p158
(dp159
g3
(dp160
g12
S'newroom (The Room of Horrible Horror)'
p161
sg14
S'Creates a new room with the optionally specified name.'
p162
sg16
g157
ssbssS'logics'
p163
(dp164
S'genericPlayer'
p165
(igenericPlayer
genericPlayer
p166
(dp167
S'temporary'
p168
I00
sbssS'name'
p169
S'Admin'
p170
sg29
I00
sS'hooks'
p171
(lp172
sS'zoneRef'
p173
I1
sS'id_num'
p174
I0
sS'rank'
p175
I1
sS'login_state'
p176
I7
sS'statistics'
p177
(dp178
sS'templateId'
p179
NsS'password'
p180
S'admin'
p181
sS'items'
p182
(dp183
sS'roomRef'
p184
I1
sS'desc'
p185
S'A blank description.'
p186
ssS'sockRef'
p187
Nsb.