(iMudCharacter
MudCharacter
p1
(dp2
S'info'
p3
(dp4
S'admin_level'
p5
I1
sS'commands'
p6
(dp7
sS'logics'
p8
(dp9
sS'name'
p10
S'Kuros'
p11
sS'items'
p12
(dp13
sS'zoneRef'
p14
NsS'id_num'
p15
I0
sS'login_state'
p16
I10
sS'statistics'
p17
(dp18
sS'password'
p19
S'Calmar'
p20
sS'roomRef'
p21
NsS'desc'
p22
S''
ssS'sockRef'
p23
ccopy_reg
_reconstructor
p24
(ctwisted.internet.tcp
Server
p25
c__builtin__
object
p26
NtRp27
sb.