(iMudIdDatabase
MudIdDatabase
p1
(dp2
S'nextCharInstance'
p3
I1
sS'nextItemTemplate'
p4
I1
sS'nextItemInstance'
p5
I1
sS'nextZoneId'
p6
I3
sS'freeCharTemplateIds'
p7
(lp8
sS'freeItemTemplateIds'
p9
(lp10
sS'freeCharInstanceIds'
p11
(lp12
sS'nextCharTemplate'
p13
I1
sS'freeItemInstanceIds'
p14
(lp15
sS'freeZoneIds'
p16
(lp17
sb.