(iMudIdDatabase
MudIdDatabase
p1
(dp2
S'nextCharInstance'
p3
I2
sS'nextItemTemplate'
p4
I2
sS'nextItemInstance'
p5
I1
sS'nextZoneId'
p6
I3
sS'freeCharTemplateIds'
p7
(lp8
I3
aI2
asS'freeItemTemplateIds'
p9
(lp10
sS'freeCharInstanceIds'
p11
(lp12
I1
asS'nextCharTemplate'
p13
I4
sS'freeItemInstanceIds'
p14
(lp15
sS'freeZoneIds'
p16
(lp17
sb.