(iMudTemplateDatabase
MudTemplateDatabase
p1
(dp2
S'charTemplates'
p3
(dp4
sS'itemTemplates'
p5
(dp6
I1
(iMudItem
MudItem
p7
(dp8
S'info'
p9
(dp10
S'isQuantity'
p11
I00
sS'commands'
p12
(dp13
sS'logics'
p14
(dp15
sS'name'
p16
S'Sword of Flowers'
p17
sS'hooks'
p18
(lp19
sS'id_num'
p20
I1
sS'statistics'
p21
(dp22
sS'templateId'
p23
NsS'owner'
p24
NsS'quantity'
p25
I1
sS'roomRef'
p26
NsS'desc'
p27
S'A blank description.'
p28
ssbssb.