(iMudIdDatabase
MudIdDatabase
p1
(dp2
S'nextCharInstance'
p3
I1
sS'nextItemTemplate'
p4
I1
sS'nextItemInstance'
p5
I1
sS'freeCharInstanceIds'
p6
(lp7
sS'freeCharTemplateIds'
p8
(lp9
sS'freeItemTemplateIds'
p10
(lp11
sS'nextCharTemplate'
p12
I1
sS'freeItemInstanceIds'
p13
(lp14
sb.